; Function Attrs: mustprogress uwtable
define noundef ptr @_ZN6icu_7714LocaleDistance12getSingletonER10UErrorCode(ptr noundef nonnull align 4 dereferenceable(4) %0) local_unnamed_addr #0 align 2 personality ptr @__gxx_personality_v0 {
  %2 = load i32, ptr %0, align 4, !tbaa !3
  %3 = icmp slt i32 %2, 1
  br i1 %3, label %4, label %43

4:                                                ; preds = %1
  %5 = load atomic i32, ptr @_ZN6icu_7712_GLOBAL__N_19gInitOnceE acquire, align 4
  %.not11.i = icmp eq i32 %5, 2
  br i1 %.not11.i, label %38, label %6

6:                                                ; preds = %4
  %7 = tail call noundef signext i8 @_ZN6icu_7720umtx_initImplPreInitERNS_9UInitOnceE(ptr noundef nonnull align 4 dereferenceable(8) @_ZN6icu_7712_GLOBAL__N_19gInitOnceE)
  %.not12.i = icmp eq i8 %7, 0
  br i1 %.not12.i, label %38, label %8

8:                                                ; preds = %6
  %9 = tail call noundef ptr @_ZN6icu_7713LikelySubtags12getSingletonER10UErrorCode(ptr noundef nonnull align 4 dereferenceable(4) %0)
  %10 = load i32, ptr %0, align 4, !tbaa !3
  %11 = icmp slt i32 %10, 1
  br i1 %11, label %12, label %_ZN6icu_7714LocaleDistance18initLocaleDistanceER10UErrorCode.exit

12:                                               ; preds = %8
  %13 = getelementptr inbounds nuw i8, ptr %9, i64 304
  %14 = load ptr, ptr %13, align 8, !tbaa !7
  %15 = icmp eq ptr %14, null
  br i1 %15, label %28, label %16

16:                                               ; preds = %12
  %17 = getelementptr inbounds nuw i8, ptr %9, i64 312
  %18 = load ptr, ptr %17, align 8, !tbaa !16
  %19 = icmp eq ptr %18, null
  br i1 %19, label %28, label %20

20:                                               ; preds = %16
  %21 = getelementptr inbounds nuw i8, ptr %9, i64 320
  %22 = load ptr, ptr %21, align 8, !tbaa !17
  %23 = icmp eq ptr %22, null
  br i1 %23, label %28, label %24

24:                                               ; preds = %20
  %25 = getelementptr inbounds nuw i8, ptr %9, i64 344
  %26 = load ptr, ptr %25, align 8, !tbaa !18
  %27 = icmp eq ptr %26, null
  br i1 %27, label %28, label %29

28:                                               ; preds = %24, %20, %16, %12
  store i32 2, ptr %0, align 4, !tbaa !3
  br label %_ZN6icu_7714LocaleDistance18initLocaleDistanceER10UErrorCode.exit

29:                                               ; preds = %24
  %30 = tail call noundef ptr @_ZN6icu_777UMemorynwEm(i64 noundef 88) #10
  %31 = icmp eq ptr %30, null
  br i1 %31, label %33, label %32

32:                                               ; preds = %29
  invoke void @_ZN6icu_7714LocaleDistanceC1ERKNS_18LocaleDistanceDataERKNS_13LikelySubtagsE(ptr noundef nonnull align 8 dereferenceable(88) %30, ptr noundef nonnull align 8 dereferenceable(48) %13, ptr noundef nonnull align 8 dereferenceable(352) %9)
          to label %36 unwind label %34

33:                                               ; preds = %29
  store ptr null, ptr @_ZN6icu_7712_GLOBAL__N_115gLocaleDistanceE, align 8, !tbaa !19
  store i32 7, ptr %0, align 4, !tbaa !3
  br label %_ZN6icu_7714LocaleDistance18initLocaleDistanceER10UErrorCode.exit

34:                                               ; preds = %32
  %35 = landingpad { ptr, i32 }
          cleanup
  tail call void @_ZN6icu_777UMemorydlEPv(ptr noundef nonnull %30) #10
  resume { ptr, i32 } %35

36:                                               ; preds = %32
  store ptr %30, ptr @_ZN6icu_7712_GLOBAL__N_115gLocaleDistanceE, align 8, !tbaa !19
  tail call void @ucln_common_registerCleanup_77(i32 noundef 11, ptr noundef nonnull @_ZN6icu_7712_GLOBAL__N_17cleanupEv)
  %.pre = load i32, ptr %0, align 4, !tbaa !3
  br label %_ZN6icu_7714LocaleDistance18initLocaleDistanceER10UErrorCode.exit

_ZN6icu_7714LocaleDistance18initLocaleDistanceER10UErrorCode.exit: ; preds = %8, %28, %33, %36
  %37 = phi i32 [ %10, %8 ], [ 2, %28 ], [ 7, %33 ], [ %.pre, %36 ]
  store i32 %37, ptr getelementptr inbounds nuw (i8, ptr @_ZN6icu_7712_GLOBAL__N_19gInitOnceE, i64 4), align 4, !tbaa !21
  tail call void @_ZN6icu_7721umtx_initImplPostInitERNS_9UInitOnceE(ptr noundef nonnull align 4 dereferenceable(8) @_ZN6icu_7712_GLOBAL__N_19gInitOnceE)
  br label %_ZN6icu_7713umtx_initOnceERNS_9UInitOnceEPFvR10UErrorCodeES3_.exit

38:                                               ; preds = %6, %4
  %39 = load i32, ptr getelementptr inbounds nuw (i8, ptr @_ZN6icu_7712_GLOBAL__N_19gInitOnceE, i64 4), align 4, !tbaa !21
  %40 = icmp slt i32 %39, 1
  br i1 %40, label %_ZN6icu_7713umtx_initOnceERNS_9UInitOnceEPFvR10UErrorCodeES3_.exit, label %41

41:                                               ; preds = %38
  store i32 %39, ptr %0, align 4, !tbaa !3
  br label %_ZN6icu_7713umtx_initOnceERNS_9UInitOnceEPFvR10UErrorCodeES3_.exit

_ZN6icu_7713umtx_initOnceERNS_9UInitOnceEPFvR10UErrorCodeES3_.exit: ; preds = %_ZN6icu_7714LocaleDistance18initLocaleDistanceER10UErrorCode.exit, %38, %41
  %42 = load ptr, ptr @_ZN6icu_7712_GLOBAL__N_115gLocaleDistanceE, align 8, !tbaa !19
  br label %43

43:                                               ; preds = %1, %_ZN6icu_7713umtx_initOnceERNS_9UInitOnceEPFvR10UErrorCodeES3_.exit
  %.0 = phi ptr [ %42, %_ZN6icu_7713umtx_initOnceERNS_9UInitOnceEPFvR10UErrorCodeES3_.exit ], [ null, %1 ]
  ret ptr %.0
}